target datalayout = "e-m:e-p270:32:32-p271:32:32-p272:64:64-i64:64-i128:128-f80:128-n8:16:32:64-S128"
target triple = "x86_64-pc-linux-gnu"

%struct._object = type { %union.anon, ptr }
%union.anon = type { i64 }

@_Py_NoneStruct = external global %struct._object, align 8
@PyExc_RuntimeError = external global ptr, align 8
@.str.39 = private unnamed_addr constant [6 x i8] c"IOn|i\00", align 1
@.str.40 = private unnamed_addr constant [26 x i8] c"PyTraceMalloc_Track error\00", align 1

; Function Attrs: nounwind uwtable
define internal ptr @tracemalloc_track(ptr noundef %0, ptr noundef %1) #0 {
  %3 = alloca ptr, align 8
  %4 = alloca ptr, align 8
  %5 = alloca ptr, align 8
  %6 = alloca i32, align 4
  %7 = alloca ptr, align 8
  %8 = alloca i64, align 8
  %9 = alloca i32, align 4
  %10 = alloca i32, align 4
  %11 = alloca ptr, align 8
  %12 = alloca i32, align 4
  %13 = alloca ptr, align 8
  store ptr %0, ptr %4, align 8, !tbaa !3
  store ptr %1, ptr %5, align 8, !tbaa !3
  call void @llvm.lifetime.start.p0(i64 4, ptr %6) #6
  call void @llvm.lifetime.start.p0(i64 8, ptr %7) #6
  call void @llvm.lifetime.start.p0(i64 8, ptr %8) #6
  call void @llvm.lifetime.start.p0(i64 4, ptr %9) #6
  store i32 0, ptr %9, align 4, !tbaa !21
  %14 = load ptr, ptr %5, align 8, !tbaa !3
  %15 = call i32 (ptr, ptr, ...) @PyArg_ParseTuple(ptr noundef %14, ptr noundef @.str.39, ptr noundef %6, ptr noundef %7, ptr noundef %8, ptr noundef %9)
  %16 = icmp ne i32 %15, 0
  br i1 %16, label %18, label %17

17:                                               ; preds = %2
  store ptr null, ptr %3, align 8
  store i32 1, ptr %10, align 4
  br label %49

18:                                               ; preds = %2
  call void @llvm.lifetime.start.p0(i64 8, ptr %11) #6
  %19 = load ptr, ptr %7, align 8, !tbaa !3
  %20 = call ptr @PyLong_AsVoidPtr(ptr noundef %19)
  store ptr %20, ptr %11, align 8, !tbaa !18
  %21 = call ptr @PyErr_Occurred()
  %22 = icmp ne ptr %21, null
  br i1 %22, label %23, label %24

23:                                               ; preds = %18
  store ptr null, ptr %3, align 8
  store i32 1, ptr %10, align 4
  br label %48

24:                                               ; preds = %18
  call void @llvm.lifetime.start.p0(i64 4, ptr %12) #6
  %25 = load i32, ptr %9, align 4, !tbaa !21
  %26 = icmp ne i32 %25, 0
  br i1 %26, label %27, label %35

27:                                               ; preds = %24
  call void @llvm.lifetime.start.p0(i64 8, ptr %13) #6
  %28 = call ptr @PyEval_SaveThread()
  store ptr %28, ptr %13, align 8, !tbaa !11
  %29 = load i32, ptr %6, align 4, !tbaa !21
  %30 = load ptr, ptr %11, align 8, !tbaa !18
  %31 = ptrtoint ptr %30 to i64
  %32 = load i64, ptr %8, align 8, !tbaa !22
  %33 = call i32 @PyTraceMalloc_Track(i32 noundef %29, i64 noundef %31, i64 noundef %32)
  store i32 %33, ptr %12, align 4, !tbaa !21
  %34 = load ptr, ptr %13, align 8, !tbaa !11
  call void @PyEval_RestoreThread(ptr noundef %34)
  call void @llvm.lifetime.end.p0(i64 8, ptr %13) #6
  br label %41

35:                                               ; preds = %24
  %36 = load i32, ptr %6, align 4, !tbaa !21
  %37 = load ptr, ptr %11, align 8, !tbaa !18
  %38 = ptrtoint ptr %37 to i64
  %39 = load i64, ptr %8, align 8, !tbaa !22
  %40 = call i32 @PyTraceMalloc_Track(i32 noundef %36, i64 noundef %38, i64 noundef %39)
  store i32 %40, ptr %12, align 4, !tbaa !21
  br label %41

41:                                               ; preds = %35, %27
  %42 = load i32, ptr %12, align 4, !tbaa !21
  %43 = icmp slt i32 %42, 0
  br i1 %43, label %44, label %46

44:                                               ; preds = %41
  %45 = load ptr, ptr @PyExc_RuntimeError, align 8, !tbaa !3
  call void @PyErr_SetString(ptr noundef %45, ptr noundef @.str.40)
  store ptr null, ptr %3, align 8
  store i32 1, ptr %10, align 4
  br label %47

46:                                               ; preds = %41
  store ptr @_Py_NoneStruct, ptr %3, align 8
  store i32 1, ptr %10, align 4
  br label %47

47:                                               ; preds = %46, %44
  call void @llvm.lifetime.end.p0(i64 4, ptr %12) #6
  br label %48

48:                                               ; preds = %47, %23
  call void @llvm.lifetime.end.p0(i64 8, ptr %11) #6
  br label %49

49:                                               ; preds = %48, %17
  call void @llvm.lifetime.end.p0(i64 4, ptr %9) #6
  call void @llvm.lifetime.end.p0(i64 8, ptr %8) #6
  call void @llvm.lifetime.end.p0(i64 8, ptr %7) #6
  call void @llvm.lifetime.end.p0(i64 4, ptr %6) #6
  %50 = load ptr, ptr %3, align 8
  ret ptr %50
}