; Function Attrs: nounwind uwtable
define internal noundef ptr @tracemalloc_track(ptr readnone captures(none) %0, ptr noundef %1) #0 {
  %3 = alloca i32, align 4
  %4 = alloca ptr, align 8
  %5 = alloca i64, align 8
  %6 = alloca i32, align 4
  call void @llvm.lifetime.start.p0(i64 4, ptr nonnull %3) #4
  call void @llvm.lifetime.start.p0(i64 8, ptr nonnull %4) #4
  call void @llvm.lifetime.start.p0(i64 8, ptr nonnull %5) #4
  call void @llvm.lifetime.start.p0(i64 4, ptr nonnull %6) #4
  store i32 0, ptr %6, align 4, !tbaa !22
  %7 = call i32 (ptr, ptr, ...) @PyArg_ParseTuple(ptr noundef %1, ptr noundef nonnull @.str.39, ptr noundef nonnull %3, ptr noundef nonnull %4, ptr noundef nonnull %5, ptr noundef nonnull %6) #4
  %.not = icmp eq i32 %7, 0
  br i1 %.not, label %29, label %8

8:                                                ; preds = %2
  %9 = load ptr, ptr %4, align 8, !tbaa !20
  %10 = call ptr @PyLong_AsVoidPtr(ptr noundef %9) #4
  %11 = call ptr @PyErr_Occurred() #4
  %.not6 = icmp eq ptr %11, null
  br i1 %.not6, label %12, label %29

12:                                               ; preds = %8
  %13 = load i32, ptr %6, align 4, !tbaa !22
  %.not7 = icmp eq i32 %13, 0
  br i1 %.not7, label %20, label %14

14:                                               ; preds = %12
  %15 = call ptr @PyEval_SaveThread() #4
  %16 = load i32, ptr %3, align 4, !tbaa !22
  %17 = ptrtoint ptr %10 to i64
  %18 = load i64, ptr %5, align 8, !tbaa !23
  %19 = call i32 @PyTraceMalloc_Track(i32 noundef %16, i64 noundef %17, i64 noundef %18) #4
  call void @PyEval_RestoreThread(ptr noundef %15) #4
  br label %25

20:                                               ; preds = %12
  %21 = load i32, ptr %3, align 4, !tbaa !22
  %22 = ptrtoint ptr %10 to i64
  %23 = load i64, ptr %5, align 8, !tbaa !23
  %24 = call i32 @PyTraceMalloc_Track(i32 noundef %21, i64 noundef %22, i64 noundef %23) #4
  br label %25

25:                                               ; preds = %20, %14
  %.05 = phi i32 [ %19, %14 ], [ %24, %20 ]
  %26 = icmp slt i32 %.05, 0
  br i1 %26, label %27, label %29

27:                                               ; preds = %25
  %28 = load ptr, ptr @PyExc_RuntimeError, align 8, !tbaa !20
  call void @PyErr_SetString(ptr noundef %28, ptr noundef nonnull @.str.40) #4
  br label %29

29:                                               ; preds = %8, %25, %27, %2
  %.0 = phi ptr [ null, %2 ], [ null, %8 ], [ null, %27 ], [ @_Py_NoneStruct, %25 ]
  call void @llvm.lifetime.end.p0(i64 4, ptr nonnull %6) #4
  call void @llvm.lifetime.end.p0(i64 8, ptr nonnull %5) #4
  call void @llvm.lifetime.end.p0(i64 8, ptr nonnull %4) #4
  call void @llvm.lifetime.end.p0(i64 4, ptr nonnull %3) #4
  ret ptr %.0
}